; Function Attrs: nofree norecurse nosync nounwind memory(argmem: readwrite) uwtable
define internal void @PredictorAdd8_C(ptr noundef readonly captures(none) %0, ptr noundef readonly captures(none) %1, i32 noundef %2, ptr noalias noundef writeonly captures(none) %3) #2 {
  %5 = icmp sgt i32 %2, 0
  br i1 %5, label %.lr.ph.preheader, label %._crit_edge

.lr.ph.preheader:                                 ; preds = %4
  %wide.trip.count = zext nneg i32 %2 to i64
  br label %.lr.ph

.lr.ph:                                           ; preds = %.lr.ph.preheader, %.lr.ph
  %indvars.iv = phi i64 [ 0, %.lr.ph.preheader ], [ %indvars.iv.next, %.lr.ph ]
  %6 = getelementptr i32, ptr %3, i64 %indvars.iv
  %7 = getelementptr inbounds nuw i32, ptr %1, i64 %indvars.iv
  %8 = getelementptr inbounds i8, ptr %7, i64 -4
  %9 = load i32, ptr %8, align 4, !tbaa !3
  %10 = load i32, ptr %7, align 4, !tbaa !3
  %11 = xor i32 %10, %9
  %12 = lshr i32 %11, 1
  %13 = and i32 %12, 2139062143
  %14 = and i32 %10, %9
  %15 = add i32 %13, %14
  %16 = getelementptr inbounds nuw i32, ptr %0, i64 %indvars.iv
  %17 = load i32, ptr %16, align 4, !tbaa !3
  %18 = and i32 %17, -16711936
  %19 = and i32 %15, -16711936
  %20 = add i32 %19, %18
  %21 = and i32 %17, 16711935
  %22 = and i32 %15, 16711935
  %23 = add nuw nsw i32 %22, %21
  %24 = and i32 %20, -16711936
  %25 = and i32 %23, 16711935
  %26 = or disjoint i32 %24, %25
  store i32 %26, ptr %6, align 4, !tbaa !3
  %indvars.iv.next = add nuw nsw i64 %indvars.iv, 1
  %exitcond.not = icmp eq i64 %indvars.iv.next, %wide.trip.count
  br i1 %exitcond.not, label %._crit_edge, label %.lr.ph, !llvm.loop !73

._crit_edge:                                      ; preds = %.lr.ph, %4
  ret void
}